target datalayout = "e-m:e-p270:32:32-p271:32:32-p272:64:64-i64:64-i128:128-f80:128-n8:16:32:64-S128"
target triple = "x86_64-pc-linux-gnu"

%struct.InterpFilterParams = type { ptr, i16, i8 }
%struct.ConvolveParams = type { i32, ptr, i32, i32, i32, i32, i32, i32, i32, i32 }

; Function Attrs: nounwind uwtable
define internal i32 @clamp(i32 noundef %0, i32 noundef %1, i32 noundef %2) #0 {
  %4 = alloca i32, align 4
  %5 = alloca i32, align 4
  %6 = alloca i32, align 4
  store i32 %0, ptr %4, align 4
  store i32 %1, ptr %5, align 4
  store i32 %2, ptr %6, align 4
  %7 = load i32, ptr %4, align 4
  %8 = load i32, ptr %5, align 4
  %9 = icmp slt i32 %7, %8
  br i1 %9, label %10, label %12

10:                                               ; preds = %3
  %11 = load i32, ptr %5, align 4
  br label %22

12:                                               ; preds = %3
  %13 = load i32, ptr %4, align 4
  %14 = load i32, ptr %6, align 4
  %15 = icmp sgt i32 %13, %14
  br i1 %15, label %16, label %18

16:                                               ; preds = %12
  %17 = load i32, ptr %6, align 4
  br label %20

18:                                               ; preds = %12
  %19 = load i32, ptr %4, align 4
  br label %20

20:                                               ; preds = %18, %16
  %21 = phi i32 [ %17, %16 ], [ %19, %18 ]
  br label %22

22:                                               ; preds = %20, %10
  %23 = phi i32 [ %11, %10 ], [ %21, %20 ]
  ret i32 %23
}

; Function Attrs: nounwind uwtable
define internal zeroext i16 @clip_pixel_highbd(i32 noundef %0, i32 noundef %1) #0 {
  %3 = alloca i16, align 2
  %4 = alloca i32, align 4
  %5 = alloca i32, align 4
  store i32 %0, ptr %4, align 4
  store i32 %1, ptr %5, align 4
  %6 = load i32, ptr %5, align 4
  switch i32 %6, label %8 [
    i32 8, label %7
    i32 10, label %12
    i32 12, label %16
  ]

7:                                                ; preds = %2
  br label %8

8:                                                ; preds = %7, %2
  %9 = load i32, ptr %4, align 4
  %10 = call i32 @clamp(i32 noundef %9, i32 noundef 0, i32 noundef 255)
  %11 = trunc i32 %10 to i16
  store i16 %11, ptr %3, align 2
  br label %20

12:                                               ; preds = %2
  %13 = load i32, ptr %4, align 4
  %14 = call i32 @clamp(i32 noundef %13, i32 noundef 0, i32 noundef 1023)
  %15 = trunc i32 %14 to i16
  store i16 %15, ptr %3, align 2
  br label %20

16:                                               ; preds = %2
  %17 = load i32, ptr %4, align 4
  %18 = call i32 @clamp(i32 noundef %17, i32 noundef 0, i32 noundef 4095)
  %19 = trunc i32 %18 to i16
  store i16 %19, ptr %3, align 2
  br label %20

20:                                               ; preds = %16, %12, %8
  %21 = load i16, ptr %3, align 2
  ret i16 %21
}

; Function Attrs: nounwind uwtable
define internal ptr @av1_get_interp_filter_subpel_kernel(ptr noundef %0, i32 noundef %1) #0 {
  %3 = alloca ptr, align 8
  %4 = alloca i32, align 4
  store ptr %0, ptr %3, align 8
  store i32 %1, ptr %4, align 4
  %5 = load ptr, ptr %3, align 8
  %6 = getelementptr inbounds nuw %struct.InterpFilterParams, ptr %5, i32 0, i32 0
  %7 = load ptr, ptr %6, align 8
  %8 = load ptr, ptr %3, align 8
  %9 = getelementptr inbounds nuw %struct.InterpFilterParams, ptr %8, i32 0, i32 1
  %10 = load i16, ptr %9, align 8
  %11 = zext i16 %10 to i32
  %12 = load i32, ptr %4, align 4
  %13 = mul nsw i32 %11, %12
  %14 = sext i32 %13 to i64
  %15 = getelementptr inbounds i16, ptr %7, i64 %14
  ret ptr %15
}

; Function Attrs: nounwind uwtable
define hidden void @av1_highbd_convolve_x_sr_c(ptr noundef %0, i32 noundef %1, ptr noundef %2, i32 noundef %3, i32 noundef %4, i32 noundef %5, ptr noundef %6, i32 noundef %7, ptr noundef %8, i32 noundef %9) #0 {
  %11 = alloca ptr, align 8
  %12 = alloca i32, align 4
  %13 = alloca ptr, align 8
  %14 = alloca i32, align 4
  %15 = alloca i32, align 4
  %16 = alloca i32, align 4
  %17 = alloca ptr, align 8
  %18 = alloca i32, align 4
  %19 = alloca ptr, align 8
  %20 = alloca i32, align 4
  %21 = alloca i32, align 4
  %22 = alloca i32, align 4
  %23 = alloca ptr, align 8
  %24 = alloca i32, align 4
  %25 = alloca i32, align 4
  %26 = alloca i32, align 4
  %27 = alloca i32, align 4
  store ptr %0, ptr %11, align 8
  store i32 %1, ptr %12, align 4
  store ptr %2, ptr %13, align 8
  store i32 %3, ptr %14, align 4
  store i32 %4, ptr %15, align 4
  store i32 %5, ptr %16, align 4
  store ptr %6, ptr %17, align 8
  store i32 %7, ptr %18, align 4
  store ptr %8, ptr %19, align 8
  store i32 %9, ptr %20, align 4
  %28 = load ptr, ptr %17, align 8
  %29 = getelementptr inbounds nuw %struct.InterpFilterParams, ptr %28, i32 0, i32 1
  %30 = load i16, ptr %29, align 8
  %31 = zext i16 %30 to i32
  %32 = sdiv i32 %31, 2
  %33 = sub nsw i32 %32, 1
  store i32 %33, ptr %21, align 4
  %34 = load ptr, ptr %19, align 8
  %35 = getelementptr inbounds nuw %struct.ConvolveParams, ptr %34, i32 0, i32 3
  %36 = load i32, ptr %35, align 4
  %37 = sub nsw i32 7, %36
  store i32 %37, ptr %22, align 4
  %38 = load ptr, ptr %17, align 8
  %39 = load i32, ptr %18, align 4
  %40 = and i32 %39, 15
  %41 = call ptr @av1_get_interp_filter_subpel_kernel(ptr noundef %38, i32 noundef %40)
  store ptr %41, ptr %23, align 8
  store i32 0, ptr %24, align 4
  br label %42

42:                                               ; preds = %119, %10
  %43 = load i32, ptr %24, align 4
  %44 = load i32, ptr %16, align 4
  %45 = icmp slt i32 %43, %44
  br i1 %45, label %46, label %122

46:                                               ; preds = %42
  store i32 0, ptr %25, align 4
  br label %47

47:                                               ; preds = %115, %46
  %48 = load i32, ptr %25, align 4
  %49 = load i32, ptr %15, align 4
  %50 = icmp slt i32 %48, %49
  br i1 %50, label %51, label %118

51:                                               ; preds = %47
  store i32 0, ptr %26, align 4
  store i32 0, ptr %27, align 4
  br label %52

52:                                               ; preds = %83, %51
  %53 = load i32, ptr %27, align 4
  %54 = load ptr, ptr %17, align 8
  %55 = getelementptr inbounds nuw %struct.InterpFilterParams, ptr %54, i32 0, i32 1
  %56 = load i16, ptr %55, align 8
  %57 = zext i16 %56 to i32
  %58 = icmp slt i32 %53, %57
  br i1 %58, label %59, label %86

59:                                               ; preds = %52
  %60 = load ptr, ptr %23, align 8
  %61 = load i32, ptr %27, align 4
  %62 = sext i32 %61 to i64
  %63 = getelementptr inbounds i16, ptr %60, i64 %62
  %64 = load i16, ptr %63, align 2
  %65 = sext i16 %64 to i32
  %66 = load ptr, ptr %11, align 8
  %67 = load i32, ptr %24, align 4
  %68 = load i32, ptr %12, align 4
  %69 = mul nsw i32 %67, %68
  %70 = load i32, ptr %25, align 4
  %71 = add nsw i32 %69, %70
  %72 = load i32, ptr %21, align 4
  %73 = sub nsw i32 %71, %72
  %74 = load i32, ptr %27, align 4
  %75 = add nsw i32 %73, %74
  %76 = sext i32 %75 to i64
  %77 = getelementptr inbounds i16, ptr %66, i64 %76
  %78 = load i16, ptr %77, align 2
  %79 = zext i16 %78 to i32
  %80 = mul nsw i32 %65, %79
  %81 = load i32, ptr %26, align 4
  %82 = add nsw i32 %81, %80
  store i32 %82, ptr %26, align 4
  br label %83

83:                                               ; preds = %59
  %84 = load i32, ptr %27, align 4
  %85 = add nsw i32 %84, 1
  store i32 %85, ptr %27, align 4
  br label %52, !llvm.loop !49

86:                                               ; preds = %52
  %87 = load i32, ptr %26, align 4
  %88 = load ptr, ptr %19, align 8
  %89 = getelementptr inbounds nuw %struct.ConvolveParams, ptr %88, i32 0, i32 3
  %90 = load i32, ptr %89, align 4
  %91 = shl i32 1, %90
  %92 = ashr i32 %91, 1
  %93 = add nsw i32 %87, %92
  %94 = load ptr, ptr %19, align 8
  %95 = getelementptr inbounds nuw %struct.ConvolveParams, ptr %94, i32 0, i32 3
  %96 = load i32, ptr %95, align 4
  %97 = ashr i32 %93, %96
  store i32 %97, ptr %26, align 4
  %98 = load i32, ptr %26, align 4
  %99 = load i32, ptr %22, align 4
  %100 = shl i32 1, %99
  %101 = ashr i32 %100, 1
  %102 = add nsw i32 %98, %101
  %103 = load i32, ptr %22, align 4
  %104 = ashr i32 %102, %103
  %105 = load i32, ptr %20, align 4
  %106 = call zeroext i16 @clip_pixel_highbd(i32 noundef %104, i32 noundef %105)
  %107 = load ptr, ptr %13, align 8
  %108 = load i32, ptr %24, align 4
  %109 = load i32, ptr %14, align 4
  %110 = mul nsw i32 %108, %109
  %111 = load i32, ptr %25, align 4
  %112 = add nsw i32 %110, %111
  %113 = sext i32 %112 to i64
  %114 = getelementptr inbounds i16, ptr %107, i64 %113
  store i16 %106, ptr %114, align 2
  br label %115

115:                                              ; preds = %86
  %116 = load i32, ptr %25, align 4
  %117 = add nsw i32 %116, 1
  store i32 %117, ptr %25, align 4
  br label %47, !llvm.loop !50

118:                                              ; preds = %47
  br label %119

119:                                              ; preds = %118
  %120 = load i32, ptr %24, align 4
  %121 = add nsw i32 %120, 1
  store i32 %121, ptr %24, align 4
  br label %42, !llvm.loop !51

122:                                              ; preds = %42
  ret void
}