; Function Attrs: nofree norecurse nosync nounwind memory(read, argmem: readwrite, inaccessiblemem: none) uwtable
define hidden void @av1_highbd_convolve_x_sr_c(ptr noundef readonly captures(none) %0, i32 noundef %1, ptr noundef writeonly captures(none) %2, i32 noundef %3, i32 noundef %4, i32 noundef %5, ptr noundef readonly captures(none) %6, i32 noundef %7, ptr noundef readonly captures(none) %8, i32 noundef %9) local_unnamed_addr #1 {
  %11 = getelementptr inbounds nuw i8, ptr %6, i64 8
  %12 = load i16, ptr %11, align 8
  %13 = getelementptr inbounds nuw i8, ptr %8, i64 20
  %14 = load i32, ptr %13, align 4
  %15 = sub nsw i32 7, %14
  %16 = and i32 %7, 15
  %.val = load ptr, ptr %6, align 8
  %17 = zext i16 %12 to i32
  %18 = mul nuw nsw i32 %16, %17
  %19 = zext nneg i32 %18 to i64
  %20 = getelementptr inbounds nuw i16, ptr %.val, i64 %19
  %21 = icmp sgt i32 %5, 0
  br i1 %21, label %.preheader37.lr.ph, label %._crit_edge43

.preheader37.lr.ph:                               ; preds = %10
  %22 = lshr i16 %12, 1
  %23 = zext nneg i16 %22 to i32
  %24 = icmp sgt i32 %4, 0
  %25 = shl nuw i32 1, %15
  %26 = ashr i32 %25, 1
  br i1 %24, label %.preheader37.us.preheader, label %._crit_edge43

.preheader37.us.preheader:                        ; preds = %.preheader37.lr.ph
  %27 = sext i32 %3 to i64
  %wide.trip.count54 = zext nneg i32 %5 to i64
  %wide.trip.count49 = zext nneg i32 %4 to i64
  br label %.preheader37.us

.preheader37.us:                                  ; preds = %.preheader37.us.preheader, %._crit_edge41.us
  %indvars.iv51 = phi i64 [ 0, %.preheader37.us.preheader ], [ %indvars.iv.next52, %._crit_edge41.us ]
  %28 = trunc i64 %indvars.iv51 to i32
  %29 = mul i32 %1, %28
  %reass.sub = sub i32 %29, %23
  %30 = add i32 %reass.sub, 1
  %31 = mul nsw i64 %indvars.iv51, %27
  %invariant.gep56 = getelementptr i16, ptr %2, i64 %31
  br label %.preheader.us

._crit_edge.us:                                   ; preds = %47, %.preheader.us
  %.032.lcssa.us = phi i32 [ 0, %.preheader.us ], [ %54, %47 ]
  %32 = load i32, ptr %13, align 4
  %33 = shl nuw i32 1, %32
  %34 = ashr i32 %33, 1
  %35 = add nsw i32 %34, %.032.lcssa.us
  %36 = ashr i32 %35, %32
  %37 = add nsw i32 %36, %26
  %38 = ashr i32 %37, %15
  switch i32 %9, label %43 [
    i32 12, label %41
    i32 10, label %39
  ]

39:                                               ; preds = %._crit_edge.us
  %40 = tail call i32 @llvm.umin.i32(i32 %38, i32 1023)
  br label %clip_pixel_highbd.exit.us

41:                                               ; preds = %._crit_edge.us
  %42 = tail call i32 @llvm.umin.i32(i32 %38, i32 4095)
  br label %clip_pixel_highbd.exit.us

43:                                               ; preds = %._crit_edge.us
  %44 = tail call i32 @llvm.umin.i32(i32 %38, i32 255)
  br label %clip_pixel_highbd.exit.us

clip_pixel_highbd.exit.us:                        ; preds = %43, %41, %39
  %.sink.i.us = phi i32 [ %42, %41 ], [ %40, %39 ], [ %44, %43 ]
  %45 = icmp slt i32 %38, 0
  %46 = trunc nuw nsw i32 %.sink.i.us to i16
  %.0.i.us = select i1 %45, i16 0, i16 %46
  %gep57 = getelementptr i16, ptr %invariant.gep56, i64 %indvars.iv46
  store i16 %.0.i.us, ptr %gep57, align 2
  %indvars.iv.next47 = add nuw nsw i64 %indvars.iv46, 1
  %exitcond50.not = icmp eq i64 %indvars.iv.next47, %wide.trip.count49
  br i1 %exitcond50.not, label %._crit_edge41.us, label %.preheader.us, !llvm.loop !49

47:                                               ; preds = %.lr.ph.us, %47
  %indvars.iv = phi i64 [ 0, %.lr.ph.us ], [ %indvars.iv.next, %47 ]
  %.03238.us = phi i32 [ 0, %.lr.ph.us ], [ %54, %47 ]
  %48 = getelementptr inbounds nuw i16, ptr %20, i64 %indvars.iv
  %49 = load i16, ptr %48, align 2
  %50 = sext i16 %49 to i32
  %gep = getelementptr i16, ptr %invariant.gep, i64 %indvars.iv
  %51 = load i16, ptr %gep, align 2
  %52 = zext i16 %51 to i32
  %53 = mul nsw i32 %52, %50
  %54 = add nsw i32 %53, %.03238.us
  %indvars.iv.next = add nuw nsw i64 %indvars.iv, 1
  %exitcond.not = icmp eq i64 %indvars.iv.next, %wide.trip.count
  br i1 %exitcond.not, label %._crit_edge.us, label %47, !llvm.loop !50

.preheader.us:                                    ; preds = %.preheader37.us, %clip_pixel_highbd.exit.us
  %indvars.iv46 = phi i64 [ 0, %.preheader37.us ], [ %indvars.iv.next47, %clip_pixel_highbd.exit.us ]
  %55 = load i16, ptr %11, align 8
  %.not = icmp eq i16 %55, 0
  br i1 %.not, label %._crit_edge.us, label %.lr.ph.us

.lr.ph.us:                                        ; preds = %.preheader.us
  %56 = trunc nuw nsw i64 %indvars.iv46 to i32
  %57 = add i32 %30, %56
  %58 = sext i32 %57 to i64
  %wide.trip.count = zext i16 %55 to i64
  %invariant.gep = getelementptr i16, ptr %0, i64 %58
  br label %47

._crit_edge41.us:                                 ; preds = %clip_pixel_highbd.exit.us
  %indvars.iv.next52 = add nuw nsw i64 %indvars.iv51, 1
  %exitcond55.not = icmp eq i64 %indvars.iv.next52, %wide.trip.count54
  br i1 %exitcond55.not, label %._crit_edge43, label %.preheader37.us, !llvm.loop !51

._crit_edge43:                                    ; preds = %._crit_edge41.us, %.preheader37.lr.ph, %10
  ret void
}